target datalayout = "e-m:e-p270:32:32-p271:32:32-p272:64:64-i64:64-i128:128-f80:128-n8:16:32:64-S128"
target triple = "x86_64-pc-linux-gnu"

; Function Attrs: mustprogress nounwind uwtable
define void @u_charsToUChars_77(ptr noundef %0, ptr noundef %1, i32 noundef %2) #0 {
  %4 = alloca ptr, align 8
  %5 = alloca ptr, align 8
  %6 = alloca i32, align 4
  %7 = alloca i16, align 2
  %8 = alloca i8, align 1
  store ptr %0, ptr %4, align 8, !tbaa !3
  store ptr %1, ptr %5, align 8, !tbaa !8
  store i32 %2, ptr %6, align 4, !tbaa !10
  call void @llvm.lifetime.start.p0(i64 2, ptr %7) #7
  call void @llvm.lifetime.start.p0(i64 1, ptr %8) #7
  br label %9

9:                                                ; preds = %12, %3
  %10 = load i32, ptr %6, align 4, !tbaa !10
  %11 = icmp sgt i32 %10, 0
  br i1 %11, label %12, label %23

12:                                               ; preds = %9
  %13 = load ptr, ptr %4, align 8, !tbaa !3
  %14 = getelementptr inbounds nuw i8, ptr %13, i32 1
  store ptr %14, ptr %4, align 8, !tbaa !3
  %15 = load i8, ptr %13, align 1, !tbaa !12
  store i8 %15, ptr %8, align 1, !tbaa !12
  %16 = load i8, ptr %8, align 1, !tbaa !12
  %17 = zext i8 %16 to i16
  store i16 %17, ptr %7, align 2, !tbaa !13
  %18 = load i16, ptr %7, align 2, !tbaa !13
  %19 = load ptr, ptr %5, align 8, !tbaa !8
  %20 = getelementptr inbounds nuw i16, ptr %19, i32 1
  store ptr %20, ptr %5, align 8, !tbaa !8
  store i16 %18, ptr %19, align 2, !tbaa !13
  %21 = load i32, ptr %6, align 4, !tbaa !10
  %22 = add nsw i32 %21, -1
  store i32 %22, ptr %6, align 4, !tbaa !10
  br label %9, !llvm.loop !15

23:                                               ; preds = %9
  call void @llvm.lifetime.end.p0(i64 1, ptr %8) #7
  call void @llvm.lifetime.end.p0(i64 2, ptr %7) #7
  ret void
}