; Function Attrs: mustprogress nofree norecurse nosync nounwind memory(argmem: readwrite) uwtable
define void @u_charsToUChars_77(ptr noundef readonly captures(none) %0, ptr noundef writeonly captures(none) %1, i32 noundef %2) local_unnamed_addr #0 {
  %4 = icmp sgt i32 %2, 0
  br i1 %4, label %.lr.ph, label %._crit_edge

.lr.ph:                                           ; preds = %3, %.lr.ph
  %.09 = phi ptr [ %5, %.lr.ph ], [ %0, %3 ]
  %.058 = phi ptr [ %8, %.lr.ph ], [ %1, %3 ]
  %.067 = phi i32 [ %9, %.lr.ph ], [ %2, %3 ]
  %5 = getelementptr inbounds nuw i8, ptr %.09, i64 1
  %6 = load i8, ptr %.09, align 1, !tbaa !3
  %7 = zext i8 %6 to i16
  %8 = getelementptr inbounds nuw i8, ptr %.058, i64 2
  store i16 %7, ptr %.058, align 2, !tbaa !6
  %9 = add nsw i32 %.067, -1
  %10 = icmp samesign ugt i32 %.067, 1
  br i1 %10, label %.lr.ph, label %._crit_edge, !llvm.loop !8

._crit_edge:                                      ; preds = %.lr.ph, %3
  ret void
}